target datalayout = "e-m:e-p270:32:32-p271:32:32-p272:64:64-i64:64-i128:128-f80:128-n8:16:32:64-S128"
target triple = "x86_64-pc-linux-gnu"

; Function Attrs: alwaysinline nounwind willreturn memory(none) uwtable
define internal signext i16 @av_clip_int16_c(i32 noundef %0) #6 {
  %2 = alloca i16, align 2
  %3 = alloca i32, align 4
  store i32 %0, ptr %3, align 4, !tbaa !30
  %4 = load i32, ptr %3, align 4, !tbaa !30
  %5 = add i32 %4, 32768
  %6 = and i32 %5, -65536
  %7 = icmp ne i32 %6, 0
  br i1 %7, label %8, label %13

8:                                                ; preds = %1
  %9 = load i32, ptr %3, align 4, !tbaa !30
  %10 = ashr i32 %9, 31
  %11 = xor i32 %10, 32767
  %12 = trunc i32 %11 to i16
  store i16 %12, ptr %2, align 2
  br label %16

13:                                               ; preds = %1
  %14 = load i32, ptr %3, align 4, !tbaa !30
  %15 = trunc i32 %14 to i16
  store i16 %15, ptr %2, align 2
  br label %16

16:                                               ; preds = %13, %8
  %17 = load i16, ptr %2, align 2
  ret i16 %17
}

; Function Attrs: nounwind uwtable
define internal void @yuv2y216le_X_c(ptr noundef %0, ptr noundef %1, ptr noundef %2, i32 noundef %3, ptr noundef %4, ptr noundef %5, ptr noundef %6, i32 noundef %7, ptr noundef %8, ptr noundef %9, i32 noundef %10, i32 noundef %11) #4 {
  %13 = alloca ptr, align 8
  %14 = alloca ptr, align 8
  %15 = alloca ptr, align 8
  %16 = alloca i32, align 4
  %17 = alloca ptr, align 8
  %18 = alloca ptr, align 8
  %19 = alloca ptr, align 8
  %20 = alloca i32, align 4
  %21 = alloca ptr, align 8
  %22 = alloca ptr, align 8
  %23 = alloca i32, align 4
  %24 = alloca i32, align 4
  %25 = alloca ptr, align 8
  %26 = alloca ptr, align 8
  %27 = alloca ptr, align 8
  %28 = alloca i32, align 4
  %29 = alloca i32, align 4
  %30 = alloca i32, align 4
  %31 = alloca i32, align 4
  %32 = alloca i32, align 4
  %33 = alloca i32, align 4
  %34 = alloca i32, align 4
  %35 = alloca i32, align 4
  %36 = alloca i32, align 4
  store ptr %0, ptr %13, align 8, !tbaa !4
  store ptr %1, ptr %14, align 8, !tbaa !45
  store ptr %2, ptr %15, align 8, !tbaa !47
  store i32 %3, ptr %16, align 4, !tbaa !30
  store ptr %4, ptr %17, align 8, !tbaa !45
  store ptr %5, ptr %18, align 8, !tbaa !47
  store ptr %6, ptr %19, align 8, !tbaa !47
  store i32 %7, ptr %20, align 4, !tbaa !30
  store ptr %8, ptr %21, align 8, !tbaa !47
  store ptr %9, ptr %22, align 8, !tbaa !46
  store i32 %10, ptr %23, align 4, !tbaa !30
  store i32 %11, ptr %24, align 4, !tbaa !30
  call void @llvm.lifetime.start.p0(i64 8, ptr %25) #8
  %37 = load ptr, ptr %15, align 8, !tbaa !47
  store ptr %37, ptr %25, align 8, !tbaa !59
  call void @llvm.lifetime.start.p0(i64 8, ptr %26) #8
  %38 = load ptr, ptr %18, align 8, !tbaa !47
  store ptr %38, ptr %26, align 8, !tbaa !59
  call void @llvm.lifetime.start.p0(i64 8, ptr %27) #8
  %39 = load ptr, ptr %19, align 8, !tbaa !47
  store ptr %39, ptr %27, align 8, !tbaa !59
  call void @llvm.lifetime.start.p0(i64 4, ptr %28) #8
  store i32 15, ptr %28, align 4, !tbaa !30
  call void @llvm.lifetime.start.p0(i64 4, ptr %29) #8
  store i32 0, ptr %29, align 4, !tbaa !30
  br label %40

40:                                               ; preds = %215, %12
  %41 = load i32, ptr %29, align 4, !tbaa !30
  %42 = load i32, ptr %23, align 4, !tbaa !30
  %43 = add nsw i32 %42, 1
  %44 = ashr i32 %43, 1
  %45 = icmp slt i32 %41, %44
  br i1 %45, label %47, label %46

46:                                               ; preds = %40
  store i32 2, ptr %30, align 4
  call void @llvm.lifetime.end.p0(i64 4, ptr %29) #8
  br label %218

47:                                               ; preds = %40
  call void @llvm.lifetime.start.p0(i64 4, ptr %31) #8
  %48 = load i32, ptr %28, align 4, !tbaa !30
  %49 = sub nsw i32 %48, 1
  %50 = shl i32 1, %49
  store i32 %50, ptr %31, align 4, !tbaa !30
  call void @llvm.lifetime.start.p0(i64 4, ptr %32) #8
  %51 = load i32, ptr %28, align 4, !tbaa !30
  %52 = sub nsw i32 %51, 1
  %53 = shl i32 1, %52
  store i32 %53, ptr %32, align 4, !tbaa !30
  call void @llvm.lifetime.start.p0(i64 4, ptr %33) #8
  %54 = load i32, ptr %28, align 4, !tbaa !30
  %55 = sub nsw i32 %54, 1
  %56 = shl i32 1, %55
  store i32 %56, ptr %33, align 4, !tbaa !30
  call void @llvm.lifetime.start.p0(i64 4, ptr %34) #8
  %57 = load i32, ptr %28, align 4, !tbaa !30
  %58 = sub nsw i32 %57, 1
  %59 = shl i32 1, %58
  store i32 %59, ptr %34, align 4, !tbaa !30
  %60 = load i32, ptr %31, align 4, !tbaa !30
  %61 = sub nsw i32 %60, 1073741824
  store i32 %61, ptr %31, align 4, !tbaa !30
  %62 = load i32, ptr %33, align 4, !tbaa !30
  %63 = sub nsw i32 %62, 1073741824
  store i32 %63, ptr %33, align 4, !tbaa !30
  %64 = load i32, ptr %32, align 4, !tbaa !30
  %65 = sub nsw i32 %64, 1073741824
  store i32 %65, ptr %32, align 4, !tbaa !30
  %66 = load i32, ptr %34, align 4, !tbaa !30
  %67 = sub nsw i32 %66, 1073741824
  store i32 %67, ptr %34, align 4, !tbaa !30
  call void @llvm.lifetime.start.p0(i64 4, ptr %35) #8
  store i32 0, ptr %35, align 4, !tbaa !30
  br label %68

68:                                               ; preds = %113, %47
  %69 = load i32, ptr %35, align 4, !tbaa !30
  %70 = load i32, ptr %16, align 4, !tbaa !30
  %71 = icmp slt i32 %69, %70
  br i1 %71, label %73, label %72

72:                                               ; preds = %68
  store i32 5, ptr %30, align 4
  call void @llvm.lifetime.end.p0(i64 4, ptr %35) #8
  br label %116

73:                                               ; preds = %68
  %74 = load ptr, ptr %25, align 8, !tbaa !59
  %75 = load i32, ptr %35, align 4, !tbaa !30
  %76 = sext i32 %75 to i64
  %77 = getelementptr inbounds ptr, ptr %74, i64 %76
  %78 = load ptr, ptr %77, align 8, !tbaa !61
  %79 = load i32, ptr %29, align 4, !tbaa !30
  %80 = mul nsw i32 %79, 2
  %81 = sext i32 %80 to i64
  %82 = getelementptr inbounds i32, ptr %78, i64 %81
  %83 = load i32, ptr %82, align 4, !tbaa !30
  %84 = load ptr, ptr %14, align 8, !tbaa !45
  %85 = load i32, ptr %35, align 4, !tbaa !30
  %86 = sext i32 %85 to i64
  %87 = getelementptr inbounds i16, ptr %84, i64 %86
  %88 = load i16, ptr %87, align 2, !tbaa !49
  %89 = sext i16 %88 to i32
  %90 = mul i32 %83, %89
  %91 = load i32, ptr %31, align 4, !tbaa !30
  %92 = add i32 %91, %90
  store i32 %92, ptr %31, align 4, !tbaa !30
  %93 = load ptr, ptr %25, align 8, !tbaa !59
  %94 = load i32, ptr %35, align 4, !tbaa !30
  %95 = sext i32 %94 to i64
  %96 = getelementptr inbounds ptr, ptr %93, i64 %95
  %97 = load ptr, ptr %96, align 8, !tbaa !61
  %98 = load i32, ptr %29, align 4, !tbaa !30
  %99 = mul nsw i32 %98, 2
  %100 = add nsw i32 %99, 1
  %101 = sext i32 %100 to i64
  %102 = getelementptr inbounds i32, ptr %97, i64 %101
  %103 = load i32, ptr %102, align 4, !tbaa !30
  %104 = load ptr, ptr %14, align 8, !tbaa !45
  %105 = load i32, ptr %35, align 4, !tbaa !30
  %106 = sext i32 %105 to i64
  %107 = getelementptr inbounds i16, ptr %104, i64 %106
  %108 = load i16, ptr %107, align 2, !tbaa !49
  %109 = sext i16 %108 to i32
  %110 = mul i32 %103, %109
  %111 = load i32, ptr %32, align 4, !tbaa !30
  %112 = add i32 %111, %110
  store i32 %112, ptr %32, align 4, !tbaa !30
  br label %113

113:                                              ; preds = %73
  %114 = load i32, ptr %35, align 4, !tbaa !30
  %115 = add nsw i32 %114, 1
  store i32 %115, ptr %35, align 4, !tbaa !30
  br label %68, !llvm.loop !103

116:                                              ; preds = %72
  call void @llvm.lifetime.start.p0(i64 4, ptr %36) #8
  store i32 0, ptr %36, align 4, !tbaa !30
  br label %117

117:                                              ; preds = %159, %116
  %118 = load i32, ptr %36, align 4, !tbaa !30
  %119 = load i32, ptr %20, align 4, !tbaa !30
  %120 = icmp slt i32 %118, %119
  br i1 %120, label %122, label %121

121:                                              ; preds = %117
  store i32 8, ptr %30, align 4
  call void @llvm.lifetime.end.p0(i64 4, ptr %36) #8
  br label %162

122:                                              ; preds = %117
  %123 = load ptr, ptr %26, align 8, !tbaa !59
  %124 = load i32, ptr %36, align 4, !tbaa !30
  %125 = sext i32 %124 to i64
  %126 = getelementptr inbounds ptr, ptr %123, i64 %125
  %127 = load ptr, ptr %126, align 8, !tbaa !61
  %128 = load i32, ptr %29, align 4, !tbaa !30
  %129 = sext i32 %128 to i64
  %130 = getelementptr inbounds i32, ptr %127, i64 %129
  %131 = load i32, ptr %130, align 4, !tbaa !30
  %132 = load ptr, ptr %17, align 8, !tbaa !45
  %133 = load i32, ptr %36, align 4, !tbaa !30
  %134 = sext i32 %133 to i64
  %135 = getelementptr inbounds i16, ptr %132, i64 %134
  %136 = load i16, ptr %135, align 2, !tbaa !49
  %137 = sext i16 %136 to i32
  %138 = mul i32 %131, %137
  %139 = load i32, ptr %33, align 4, !tbaa !30
  %140 = add i32 %139, %138
  store i32 %140, ptr %33, align 4, !tbaa !30
  %141 = load ptr, ptr %27, align 8, !tbaa !59
  %142 = load i32, ptr %36, align 4, !tbaa !30
  %143 = sext i32 %142 to i64
  %144 = getelementptr inbounds ptr, ptr %141, i64 %143
  %145 = load ptr, ptr %144, align 8, !tbaa !61
  %146 = load i32, ptr %29, align 4, !tbaa !30
  %147 = sext i32 %146 to i64
  %148 = getelementptr inbounds i32, ptr %145, i64 %147
  %149 = load i32, ptr %148, align 4, !tbaa !30
  %150 = load ptr, ptr %17, align 8, !tbaa !45
  %151 = load i32, ptr %36, align 4, !tbaa !30
  %152 = sext i32 %151 to i64
  %153 = getelementptr inbounds i16, ptr %150, i64 %152
  %154 = load i16, ptr %153, align 2, !tbaa !49
  %155 = sext i16 %154 to i32
  %156 = mul i32 %149, %155
  %157 = load i32, ptr %34, align 4, !tbaa !30
  %158 = add i32 %157, %156
  store i32 %158, ptr %34, align 4, !tbaa !30
  br label %159

159:                                              ; preds = %122
  %160 = load i32, ptr %36, align 4, !tbaa !30
  %161 = add nsw i32 %160, 1
  store i32 %161, ptr %36, align 4, !tbaa !30
  br label %117, !llvm.loop !104

162:                                              ; preds = %121
  %163 = load i32, ptr %31, align 4, !tbaa !30
  %164 = load i32, ptr %28, align 4, !tbaa !30
  %165 = ashr i32 %163, %164
  %166 = call signext i16 @av_clip_int16_c(i32 noundef %165) #10
  %167 = sext i16 %166 to i32
  %168 = add nsw i32 32768, %167
  %169 = trunc i32 %168 to i16
  %170 = load ptr, ptr %22, align 8, !tbaa !46
  %171 = load i32, ptr %29, align 4, !tbaa !30
  %172 = mul nsw i32 8, %171
  %173 = sext i32 %172 to i64
  %174 = getelementptr inbounds i8, ptr %170, i64 %173
  %175 = getelementptr inbounds i8, ptr %174, i64 0
  store i16 %169, ptr %175, align 1, !tbaa !51
  %176 = load i32, ptr %33, align 4, !tbaa !30
  %177 = load i32, ptr %28, align 4, !tbaa !30
  %178 = ashr i32 %176, %177
  %179 = call signext i16 @av_clip_int16_c(i32 noundef %178) #10
  %180 = sext i16 %179 to i32
  %181 = add nsw i32 32768, %180
  %182 = trunc i32 %181 to i16
  %183 = load ptr, ptr %22, align 8, !tbaa !46
  %184 = load i32, ptr %29, align 4, !tbaa !30
  %185 = mul nsw i32 8, %184
  %186 = sext i32 %185 to i64
  %187 = getelementptr inbounds i8, ptr %183, i64 %186
  %188 = getelementptr inbounds i8, ptr %187, i64 2
  store i16 %182, ptr %188, align 1, !tbaa !51
  %189 = load i32, ptr %32, align 4, !tbaa !30
  %190 = load i32, ptr %28, align 4, !tbaa !30
  %191 = ashr i32 %189, %190
  %192 = call signext i16 @av_clip_int16_c(i32 noundef %191) #10
  %193 = sext i16 %192 to i32
  %194 = add nsw i32 32768, %193
  %195 = trunc i32 %194 to i16
  %196 = load ptr, ptr %22, align 8, !tbaa !46
  %197 = load i32, ptr %29, align 4, !tbaa !30
  %198 = mul nsw i32 8, %197
  %199 = sext i32 %198 to i64
  %200 = getelementptr inbounds i8, ptr %196, i64 %199
  %201 = getelementptr inbounds i8, ptr %200, i64 4
  store i16 %195, ptr %201, align 1, !tbaa !51
  %202 = load i32, ptr %34, align 4, !tbaa !30
  %203 = load i32, ptr %28, align 4, !tbaa !30
  %204 = ashr i32 %202, %203
  %205 = call signext i16 @av_clip_int16_c(i32 noundef %204) #10
  %206 = sext i16 %205 to i32
  %207 = add nsw i32 32768, %206
  %208 = trunc i32 %207 to i16
  %209 = load ptr, ptr %22, align 8, !tbaa !46
  %210 = load i32, ptr %29, align 4, !tbaa !30
  %211 = mul nsw i32 8, %210
  %212 = sext i32 %211 to i64
  %213 = getelementptr inbounds i8, ptr %209, i64 %212
  %214 = getelementptr inbounds i8, ptr %213, i64 6
  store i16 %208, ptr %214, align 1, !tbaa !51
  call void @llvm.lifetime.end.p0(i64 4, ptr %34) #8
  call void @llvm.lifetime.end.p0(i64 4, ptr %33) #8
  call void @llvm.lifetime.end.p0(i64 4, ptr %32) #8
  call void @llvm.lifetime.end.p0(i64 4, ptr %31) #8
  br label %215

215:                                              ; preds = %162
  %216 = load i32, ptr %29, align 4, !tbaa !30
  %217 = add nsw i32 %216, 1
  store i32 %217, ptr %29, align 4, !tbaa !30
  br label %40, !llvm.loop !105

218:                                              ; preds = %46
  call void @llvm.lifetime.end.p0(i64 4, ptr %28) #8
  call void @llvm.lifetime.end.p0(i64 8, ptr %27) #8
  call void @llvm.lifetime.end.p0(i64 8, ptr %26) #8
  call void @llvm.lifetime.end.p0(i64 8, ptr %25) #8
  ret void
}