; Function Attrs: nofree norecurse nosync nounwind memory(read, argmem: readwrite, inaccessiblemem: none) uwtable
define internal void @yuv2y216le_X_c(ptr readnone captures(none) %0, ptr noundef readonly captures(none) %1, ptr noundef readonly captures(none) %2, i32 noundef %3, ptr noundef readonly captures(none) %4, ptr noundef readonly captures(none) %5, ptr noundef readonly captures(none) %6, i32 noundef %7, ptr readnone captures(none) %8, ptr noundef writeonly captures(none) %9, i32 noundef %10, i32 %11) #3 {
  %13 = add nsw i32 %10, 1
  %14 = ashr i32 %13, 1
  %15 = icmp sgt i32 %14, 0
  br i1 %15, label %.preheader71.lr.ph, label %._crit_edge83

.preheader71.lr.ph:                               ; preds = %12
  %16 = icmp sgt i32 %3, 0
  %17 = icmp sgt i32 %7, 0
  %wide.trip.count96 = zext nneg i32 %14 to i64
  %wide.trip.count = zext nneg i32 %3 to i64
  %wide.trip.count91 = zext nneg i32 %7 to i64
  br label %.preheader71

.preheader71:                                     ; preds = %.preheader71.lr.ph, %._crit_edge
  %indvars.iv93 = phi i64 [ 0, %.preheader71.lr.ph ], [ %indvars.iv.next94, %._crit_edge ]
  br i1 %16, label %.lr.ph, label %.preheader

.lr.ph:                                           ; preds = %.preheader71
  %.idx = shl nuw nsw i64 %indvars.iv93, 3
  br label %20

._crit_edge83:                                    ; preds = %._crit_edge, %12
  ret void

.preheader.loopexit:                              ; preds = %20
  %18 = ashr i32 %29, 15
  %19 = ashr i32 %33, 15
  br label %.preheader

.preheader:                                       ; preds = %.preheader.loopexit, %.preheader71
  %.063.lcssa = phi i32 [ -32768, %.preheader71 ], [ %18, %.preheader.loopexit ]
  %.062.lcssa = phi i32 [ -32768, %.preheader71 ], [ %19, %.preheader.loopexit ]
  br i1 %17, label %.lr.ph79, label %._crit_edge

20:                                               ; preds = %.lr.ph, %20
  %indvars.iv = phi i64 [ 0, %.lr.ph ], [ %indvars.iv.next, %20 ]
  %.06273 = phi i32 [ -1073725440, %.lr.ph ], [ %33, %20 ]
  %.06372 = phi i32 [ -1073725440, %.lr.ph ], [ %29, %20 ]
  %21 = getelementptr inbounds nuw ptr, ptr %2, i64 %indvars.iv
  %22 = load ptr, ptr %21, align 8, !tbaa !48
  %23 = getelementptr inbounds nuw i8, ptr %22, i64 %.idx
  %24 = load i32, ptr %23, align 4, !tbaa !49
  %25 = getelementptr inbounds nuw i16, ptr %1, i64 %indvars.iv
  %26 = load i16, ptr %25, align 2, !tbaa !39
  %27 = sext i16 %26 to i32
  %28 = mul i32 %24, %27
  %29 = add i32 %28, %.06372
  %30 = getelementptr inbounds nuw i8, ptr %23, i64 4
  %31 = load i32, ptr %30, align 4, !tbaa !49
  %32 = mul i32 %31, %27
  %33 = add i32 %32, %.06273
  %indvars.iv.next = add nuw nsw i64 %indvars.iv, 1
  %exitcond.not = icmp eq i64 %indvars.iv.next, %wide.trip.count
  br i1 %exitcond.not, label %.preheader.loopexit, label %20, !llvm.loop !179

._crit_edge.loopexit:                             ; preds = %.lr.ph79
  %34 = ashr i32 %61, 15
  %35 = ashr i32 %67, 15
  br label %._crit_edge

._crit_edge:                                      ; preds = %._crit_edge.loopexit, %.preheader
  %.061.lcssa = phi i32 [ -32768, %.preheader ], [ %34, %._crit_edge.loopexit ]
  %.060.lcssa = phi i32 [ -32768, %.preheader ], [ %35, %._crit_edge.loopexit ]
  %36 = tail call i32 @llvm.smax.i32(i32 %.063.lcssa, i32 -32768)
  %37 = tail call i32 @llvm.smin.i32(i32 %36, i32 32767)
  %.0.i = trunc nsw i32 %37 to i16
  %38 = xor i16 %.0.i, -32768
  %39 = shl nsw i64 %indvars.iv93, 3
  %40 = getelementptr inbounds nuw i8, ptr %9, i64 %39
  store i16 %38, ptr %40, align 1, !tbaa !41
  %41 = tail call i32 @llvm.smax.i32(i32 %.061.lcssa, i32 -32768)
  %42 = tail call i32 @llvm.smin.i32(i32 %41, i32 32767)
  %.0.i66 = trunc nsw i32 %42 to i16
  %43 = xor i16 %.0.i66, -32768
  %44 = getelementptr inbounds nuw i8, ptr %40, i64 2
  store i16 %43, ptr %44, align 1, !tbaa !41
  %45 = tail call i32 @llvm.smax.i32(i32 %.062.lcssa, i32 -32768)
  %46 = tail call i32 @llvm.smin.i32(i32 %45, i32 32767)
  %.0.i68 = trunc nsw i32 %46 to i16
  %47 = xor i16 %.0.i68, -32768
  %48 = getelementptr inbounds nuw i8, ptr %40, i64 4
  store i16 %47, ptr %48, align 1, !tbaa !41
  %49 = tail call i32 @llvm.smax.i32(i32 %.060.lcssa, i32 -32768)
  %50 = tail call i32 @llvm.smin.i32(i32 %49, i32 32767)
  %.0.i70 = trunc nsw i32 %50 to i16
  %51 = xor i16 %.0.i70, -32768
  %52 = getelementptr inbounds nuw i8, ptr %40, i64 6
  store i16 %51, ptr %52, align 1, !tbaa !41
  %indvars.iv.next94 = add nuw nsw i64 %indvars.iv93, 1
  %exitcond97.not = icmp eq i64 %indvars.iv.next94, %wide.trip.count96
  br i1 %exitcond97.not, label %._crit_edge83, label %.preheader71, !llvm.loop !180

.lr.ph79:                                         ; preds = %.preheader, %.lr.ph79
  %indvars.iv88 = phi i64 [ %indvars.iv.next89, %.lr.ph79 ], [ 0, %.preheader ]
  %.06077 = phi i32 [ %67, %.lr.ph79 ], [ -1073725440, %.preheader ]
  %.06176 = phi i32 [ %61, %.lr.ph79 ], [ -1073725440, %.preheader ]
  %53 = getelementptr inbounds nuw ptr, ptr %5, i64 %indvars.iv88
  %54 = load ptr, ptr %53, align 8, !tbaa !48
  %55 = getelementptr inbounds nuw i32, ptr %54, i64 %indvars.iv93
  %56 = load i32, ptr %55, align 4, !tbaa !49
  %57 = getelementptr inbounds nuw i16, ptr %4, i64 %indvars.iv88
  %58 = load i16, ptr %57, align 2, !tbaa !39
  %59 = sext i16 %58 to i32
  %60 = mul i32 %56, %59
  %61 = add i32 %60, %.06176
  %62 = getelementptr inbounds nuw ptr, ptr %6, i64 %indvars.iv88
  %63 = load ptr, ptr %62, align 8, !tbaa !48
  %64 = getelementptr inbounds nuw i32, ptr %63, i64 %indvars.iv93
  %65 = load i32, ptr %64, align 4, !tbaa !49
  %66 = mul i32 %65, %59
  %67 = add i32 %66, %.06077
  %indvars.iv.next89 = add nuw nsw i64 %indvars.iv88, 1
  %exitcond92.not = icmp eq i64 %indvars.iv.next89, %wide.trip.count91
  br i1 %exitcond92.not, label %._crit_edge.loopexit, label %.lr.ph79, !llvm.loop !181
}